(dp0
S'dalaba'
p1
(F0.12688766866312168
F0.023285776422080427
tp2
sS'dabola'
p3
(F0.35580623991157423
F-0.10148447476841037
tp4
sS'siguiri'
p5
(F0.6342869036805323
F0.038056568816191225
tp6
sS'kankan'
p7
(F0.1082916853247874
F0.01160187426554116
tp8
sS'nzerekore'
p9
(F-0.8564225541823636
F0.06359492250395951
tp10
sS'yomou'
p11
(F-0.928868186369269
F0.032254740333795384
tp12
sS'dubreka'
p13
(F-0.02593737784665515
F-0.27511947570733697
tp14
sS'dinguiraye'
p15
(F0.5835284955827261
F-0.07292826626545805
tp16
sS'lola'
p17
(F-0.8010741773744217
F0.08087515755779957
tp18
sS'gueckedou'
p19
(F-0.5242393215484776
F-0.030725037523967637
tp20
sS'boke'
p21
(F0.5414597989453349
F-0.3173987315314857
tp22
sS'kerouane'
p23
(F-0.2375222600000376
F0.050440987661480564
tp24
sS'kindia'
p25
(F0.07566801968791775
F-0.22804241692864408
tp26
sS'telimele'
p27
(F0.42863717449897115
F-0.24010047402873894
tp28
sS'forecariah'
p29
(F-0.17076656617430083
F-0.24447042059952567
tp30
sS'coyah'
p31
(F-0.059312541708411624
F-0.26593483930007034
tp32
sS'kouroussa'
p33
(F0.3229357335724699
F-0.012952807715288445
tp34
sS'beyla'
p35
(F-0.47405772878730085
F0.07671810270859306
tp36
sS'boffa'
p37
(F0.13264338242880586
F-0.3129949173005636
tp38
sS'kissidougou'
p39
(F-0.2695588252710184
F-0.029511702778145528
tp40
sS'mamou'
p41
(F0.3048001374134526
F-0.21878150786387485
tp42
sS'faranah'
p43
(F0.07746879415875192
F-0.07537128815261207
tp44
sS'macenta'
p45
(F-0.5350832384851993
F0.016822000947057963
tp46
sS'pita'
p47
(F0.39126706948943235
F-0.2365083857770561
tp48
sS'conakry'
p49
(F-0.08673259232417072
F-0.27971517056507844
tp50
s.